target datalayout = "e-m:e-p270:32:32-p271:32:32-p272:64:64-i64:64-i128:128-f80:128-n8:16:32:64-S128"
target triple = "x86_64-pc-linux-gnu"

%"class.tbb::detail::r1::basic_tls" = type { i32 }
%"struct.tbb::detail::r1::cpu_features_type" = type { i8, i8, i8 }

@_ZN3tbb6detail2r18governor6theTLSE = external global %"class.tbb::detail::r1::basic_tls", align 4
@.str = private unnamed_addr constant [45 x i8] c"TBB failed to initialize task scheduler TLS\0A\00", align 1
@_ZN3tbb6detail2r18governor12cpu_featuresE = external global %"struct.tbb::detail::r1::cpu_features_type", align 1
@_ZN3tbb6detail2r18governor17is_rethrow_brokenE = external global i8, align 1

; Function Attrs: mustprogress nounwind sspstrong uwtable
define linkonce_odr noundef i32 @_ZN3tbb6detail2r19basic_tlsIPNS1_11thread_dataEE6createEPFvPvE(ptr noundef nonnull align 4 dereferenceable(4) %0, ptr noundef %1) #3 comdat align 2 {
  %3 = alloca ptr, align 8
  %4 = alloca ptr, align 8
  store ptr %0, ptr %3, align 8, !tbaa !9
  store ptr %1, ptr %4, align 8, !tbaa !12
  %5 = load ptr, ptr %3, align 8
  %6 = getelementptr inbounds nuw %"class.tbb::detail::r1::basic_tls", ptr %5, i32 0, i32 0
  %7 = load ptr, ptr %4, align 8, !tbaa !12
  %8 = call i32 @pthread_key_create(ptr noundef %6, ptr noundef %7) #12
  ret i32 %8
}

; Function Attrs: mustprogress sspstrong uwtable
define void @_ZN3tbb6detail2r18governor17acquire_resourcesEv() #1 align 2 {
  %1 = alloca i32, align 4
  call void @_ZN3tbb6detail2r122global_control_acquireEv()
  call void @llvm.lifetime.start.p0(i64 4, ptr %1) #12
  %2 = call noundef i32 @_ZN3tbb6detail2r19basic_tlsIPNS1_11thread_dataEE6createEPFvPvE(ptr noundef nonnull align 4 dereferenceable(4) @_ZN3tbb6detail2r18governor6theTLSE, ptr noundef @_ZN3tbb6detail2r18governor14auto_terminateEPv)
  store i32 %2, ptr %1, align 4, !tbaa !3
  %3 = load i32, ptr %1, align 4, !tbaa !3
  %4 = icmp ne i32 %3, 0
  br i1 %4, label %5, label %7

5:                                                ; preds = %0
  %6 = load i32, ptr %1, align 4, !tbaa !3
  call void @_ZN3tbb6detail2r113handle_perrorEiPKc(i32 noundef %6, ptr noundef @.str)
  br label %7

7:                                                ; preds = %5, %0
  call void @_ZN3tbb6detail2r119detect_cpu_featuresERNS1_17cpu_features_typeE(ptr noundef nonnull align 1 dereferenceable(3) @_ZN3tbb6detail2r18governor12cpu_featuresE)
  %8 = call noundef zeroext i1 @_ZN3tbb6detail2r128gcc_rethrow_exception_brokenEv()
  %9 = zext i1 %8 to i8
  store i8 %9, ptr @_ZN3tbb6detail2r18governor17is_rethrow_brokenE, align 1, !tbaa !7
  call void @llvm.lifetime.end.p0(i64 4, ptr %1) #12
  ret void
}