; Function Attrs: mustprogress sspstrong uwtable
define void @_ZN3tbb6detail2r18governor17acquire_resourcesEv() local_unnamed_addr #1 align 2 {
  tail call void @_ZN3tbb6detail2r122global_control_acquireEv()
  %1 = tail call noundef i32 @pthread_key_create(ptr noundef nonnull @_ZN3tbb6detail2r18governor6theTLSE, ptr noundef nonnull @_ZN3tbb6detail2r18governor14auto_terminateEPv) #8
  %.not = icmp eq i32 %1, 0
  br i1 %.not, label %3, label %2

2:                                                ; preds = %0
  tail call void @_ZN3tbb6detail2r113handle_perrorEiPKc(i32 noundef %1, ptr noundef nonnull @.str)
  br label %3

3:                                                ; preds = %2, %0
  tail call void @_ZN3tbb6detail2r119detect_cpu_featuresERNS1_17cpu_features_typeE(ptr noundef nonnull align 1 dereferenceable(3) @_ZN3tbb6detail2r18governor12cpu_featuresE)
  %4 = tail call noundef zeroext i1 @_ZN3tbb6detail2r128gcc_rethrow_exception_brokenEv()
  %5 = zext i1 %4 to i8
  store i8 %5, ptr @_ZN3tbb6detail2r18governor17is_rethrow_brokenE, align 1, !tbaa !3
  ret void
}